; Function Attrs: mustprogress nounwind uwtable
define dso_local void @_ZN6bParse5bFileD2Ev(ptr noundef nonnull align 8 dereferenceable(540) initializes((0, 8)) %0) unnamed_addr #7 align 2 personality ptr @__gxx_personality_v0 {
  store ptr getelementptr inbounds nuw inrange(-16, 72) (i8, ptr @_ZTVN6bParse5bFileE, i64 16), ptr %0, align 8, !tbaa !9
  %2 = getelementptr inbounds nuw i8, ptr %0, i64 15
  %3 = load i8, ptr %2, align 1, !tbaa !11, !range !60, !noundef !61
  %4 = trunc nuw i8 %3 to i1
  br i1 %4, label %5, label %9

5:                                                ; preds = %1
  %6 = getelementptr inbounds nuw i8, ptr %0, i64 16
  %7 = load ptr, ptr %6, align 8, !tbaa !59
  %.not = icmp eq ptr %7, null
  br i1 %.not, label %9, label %8

8:                                                ; preds = %5
  tail call void @free(ptr noundef nonnull %7) #31
  store ptr null, ptr %6, align 8, !tbaa !59
  br label %9

9:                                                ; preds = %8, %5, %1
  %10 = getelementptr inbounds nuw i8, ptr %0, i64 176
  %11 = load ptr, ptr %10, align 8, !tbaa !64
  %12 = icmp eq ptr %11, null
  br i1 %12, label %14, label %13

13:                                               ; preds = %9
  tail call void @_ZN6bParse4bDNAD1Ev(ptr noundef nonnull align 8 dereferenceable(420) %11) #31
  tail call void @_ZdlPvm(ptr noundef nonnull %11, i64 noundef 424) #33
  br label %14

14:                                               ; preds = %13, %9
  %15 = getelementptr inbounds nuw i8, ptr %0, i64 168
  %16 = load ptr, ptr %15, align 8, !tbaa !65
  %17 = icmp eq ptr %16, null
  br i1 %17, label %19, label %18

18:                                               ; preds = %14
  tail call void @_ZN6bParse4bDNAD1Ev(ptr noundef nonnull align 8 dereferenceable(420) %16) #31
  tail call void @_ZdlPvm(ptr noundef nonnull %16, i64 noundef 424) #33
  br label %19

19:                                               ; preds = %18, %14
  %20 = getelementptr inbounds nuw i8, ptr %0, i64 408
  tail call void @_ZN9b3HashMapI9b3HashPtrPN6bParse13bStructHandleEED2Ev(ptr noundef nonnull align 8 dereferenceable(128) %20) #31
  %21 = getelementptr inbounds nuw i8, ptr %0, i64 280
  tail call void @_ZN9b3HashMapI9b3HashPtrN6bParse9bChunkIndEED2Ev(ptr noundef nonnull align 8 dereferenceable(128) %21) #31
  %22 = getelementptr inbounds nuw i8, ptr %0, i64 264
  %23 = load ptr, ptr %22, align 8, !tbaa !53
  %.not.i.i.i = icmp eq ptr %23, null
  br i1 %.not.i.i.i, label %_ZN20b3AlignedObjectArrayIN6bParse9bChunkIndEED2Ev.exit, label %24

24:                                               ; preds = %19
  %25 = getelementptr inbounds nuw i8, ptr %0, i64 272
  %26 = load i8, ptr %25, align 8, !tbaa !52, !range !60, !noundef !61
  %27 = trunc nuw i8 %26 to i1
  br i1 %27, label %28, label %_ZN20b3AlignedObjectArrayIN6bParse9bChunkIndEED2Ev.exit

28:                                               ; preds = %24
  invoke void @_Z21b3AlignedFreeInternalPv(ptr noundef nonnull %23)
          to label %_ZN20b3AlignedObjectArrayIN6bParse9bChunkIndEED2Ev.exit unwind label %29

29:                                               ; preds = %28
  %30 = landingpad { ptr, i32 }
          catch ptr null
  %31 = extractvalue { ptr, i32 } %30, 0
  tail call void @__clang_call_terminate(ptr %31) #32
  unreachable

_ZN20b3AlignedObjectArrayIN6bParse9bChunkIndEED2Ev.exit: ; preds = %19, %24, %28
  %32 = getelementptr inbounds nuw i8, ptr %0, i64 252
  %33 = getelementptr inbounds nuw i8, ptr %0, i64 272
  store i8 1, ptr %33, align 8, !tbaa !52
  store ptr null, ptr %22, align 8, !tbaa !53
  store i32 0, ptr %32, align 4, !tbaa !54
  %34 = getelementptr inbounds nuw i8, ptr %0, i64 256
  store i32 0, ptr %34, align 8, !tbaa !55
  %35 = getelementptr inbounds nuw i8, ptr %0, i64 232
  %36 = load ptr, ptr %35, align 8, !tbaa !49
  %.not.i.i.i3 = icmp eq ptr %36, null
  br i1 %.not.i.i.i3, label %_ZN20b3AlignedObjectArrayIPcED2Ev.exit, label %37

37:                                               ; preds = %_ZN20b3AlignedObjectArrayIN6bParse9bChunkIndEED2Ev.exit
  %38 = getelementptr inbounds nuw i8, ptr %0, i64 240
  %39 = load i8, ptr %38, align 8, !tbaa !48, !range !60, !noundef !61
  %40 = trunc nuw i8 %39 to i1
  br i1 %40, label %41, label %_ZN20b3AlignedObjectArrayIPcED2Ev.exit

41:                                               ; preds = %37
  invoke void @_Z21b3AlignedFreeInternalPv(ptr noundef nonnull %36)
          to label %_ZN20b3AlignedObjectArrayIPcED2Ev.exit unwind label %42

42:                                               ; preds = %41
  %43 = landingpad { ptr, i32 }
          catch ptr null
  %44 = extractvalue { ptr, i32 } %43, 0
  tail call void @__clang_call_terminate(ptr %44) #32
  unreachable

_ZN20b3AlignedObjectArrayIPcED2Ev.exit:           ; preds = %_ZN20b3AlignedObjectArrayIN6bParse9bChunkIndEED2Ev.exit, %37, %41
  %45 = getelementptr inbounds nuw i8, ptr %0, i64 220
  %46 = getelementptr inbounds nuw i8, ptr %0, i64 240
  store i8 1, ptr %46, align 8, !tbaa !48
  store ptr null, ptr %35, align 8, !tbaa !49
  store i32 0, ptr %45, align 4, !tbaa !50
  %47 = getelementptr inbounds nuw i8, ptr %0, i64 224
  store i32 0, ptr %47, align 8, !tbaa !51
  %48 = getelementptr inbounds nuw i8, ptr %0, i64 200
  %49 = load ptr, ptr %48, align 8, !tbaa !49
  %.not.i.i.i4 = icmp eq ptr %49, null
  br i1 %.not.i.i.i4, label %_ZN20b3AlignedObjectArrayIPcED2Ev.exit5, label %50

50:                                               ; preds = %_ZN20b3AlignedObjectArrayIPcED2Ev.exit
  %51 = getelementptr inbounds nuw i8, ptr %0, i64 208
  %52 = load i8, ptr %51, align 8, !tbaa !48, !range !60, !noundef !61
  %53 = trunc nuw i8 %52 to i1
  br i1 %53, label %54, label %_ZN20b3AlignedObjectArrayIPcED2Ev.exit5

54:                                               ; preds = %50
  invoke void @_Z21b3AlignedFreeInternalPv(ptr noundef nonnull %49)
          to label %_ZN20b3AlignedObjectArrayIPcED2Ev.exit5 unwind label %55

55:                                               ; preds = %54
  %56 = landingpad { ptr, i32 }
          catch ptr null
  %57 = extractvalue { ptr, i32 } %56, 0
  tail call void @__clang_call_terminate(ptr %57) #32
  unreachable

_ZN20b3AlignedObjectArrayIPcED2Ev.exit5:          ; preds = %_ZN20b3AlignedObjectArrayIPcED2Ev.exit, %50, %54
  %58 = getelementptr inbounds nuw i8, ptr %0, i64 188
  %59 = getelementptr inbounds nuw i8, ptr %0, i64 208
  store i8 1, ptr %59, align 8, !tbaa !48
  store ptr null, ptr %48, align 8, !tbaa !49
  store i32 0, ptr %58, align 4, !tbaa !50
  %60 = getelementptr inbounds nuw i8, ptr %0, i64 192
  store i32 0, ptr %60, align 8, !tbaa !51
  %61 = getelementptr inbounds nuw i8, ptr %0, i64 32
  tail call void @_ZN9b3HashMapI9b3HashPtrPN6bParse13bStructHandleEED2Ev(ptr noundef nonnull align 8 dereferenceable(128) %61) #31
  ret void
}